; ModuleID = '22/602.c'
source_filename = "22/602.c"
target datalayout = "e-m:e-p270:32:32-p271:32:32-p272:64:64-i64:64-f80:128-n8:16:32:64-S128"
target triple = "x86_64-pc-linux-gnu"

@.str = private unnamed_addr constant [3 x i8] c"%d\00", align 1
@.str.1 = private unnamed_addr constant [4 x i8] c",%d\00", align 1
@.str.2 = private unnamed_addr constant [4 x i8] c"%d\0A\00", align 1
@.str.3 = private unnamed_addr constant [4 x i8] c"No\0A\00", align 1

; Function Attrs: noinline nounwind uwtable
define dso_local void @main() #0 {
  %1 = alloca i32, align 4
  %2 = alloca [300 x i32], align 16
  %3 = alloca i32, align 4
  %4 = alloca i32, align 4
  %5 = alloca i32, align 4
  store i32 0, i32* %1, align 4
  %6 = bitcast [300 x i32]* %2 to i8*
  call void @llvm.memset.p0i8.i64(i8* align 16 %6, i8 0, i64 1200, i1 false)
  store i32 0, i32* %5, align 4
  store i32 0, i32* %1, align 4
  br label %7

7:                                                ; preds = %24, %0
  %8 = load i32, i32* %1, align 4
  %9 = icmp slt i32 %8, 300
  br i1 %9, label %10, label %27

10:                                               ; preds = %7
  %11 = load i32, i32* %1, align 4
  %12 = icmp eq i32 %11, 0
  br i1 %12, label %13, label %18

13:                                               ; preds = %10
  %14 = load i32, i32* %1, align 4
  %15 = sext i32 %14 to i64
  %16 = getelementptr inbounds [300 x i32], [300 x i32]* %2, i64 0, i64 %15
  %17 = call i32 (i8*, ...) @__isoc99_scanf(i8* getelementptr inbounds ([3 x i8], [3 x i8]* @.str, i64 0, i64 0), i32* %16)
  br label %23

18:                                               ; preds = %10
  %19 = load i32, i32* %1, align 4
  %20 = sext i32 %19 to i64
  %21 = getelementptr inbounds [300 x i32], [300 x i32]* %2, i64 0, i64 %20
  %22 = call i32 (i8*, ...) @__isoc99_scanf(i8* getelementptr inbounds ([4 x i8], [4 x i8]* @.str.1, i64 0, i64 0), i32* %21)
  br label %23

23:                                               ; preds = %18, %13
  br label %24

24:                                               ; preds = %23
  %25 = load i32, i32* %1, align 4
  %26 = add nsw i32 %25, 1
  store i32 %26, i32* %1, align 4
  br label %7

27:                                               ; preds = %7
  %28 = getelementptr inbounds [300 x i32], [300 x i32]* %2, i64 0, i64 1
  %29 = load i32, i32* %28, align 4
  %30 = icmp ne i32 %29, 0
  br i1 %30, label %31, label %140

31:                                               ; preds = %27
  store i32 0, i32* %1, align 4
  br label %32

32:                                               ; preds = %75, %31
  %33 = load i32, i32* %1, align 4
  %34 = icmp sle i32 %33, 300
  br i1 %34, label %35, label %78

35:                                               ; preds = %32
  store i32 0, i32* %3, align 4
  br label %36

36:                                               ; preds = %71, %35
  %37 = load i32, i32* %3, align 4
  %38 = load i32, i32* %1, align 4
  %39 = sub nsw i32 299, %38
  %40 = icmp slt i32 %37, %39
  br i1 %40, label %41, label %74

41:                                               ; preds = %36
  %42 = load i32, i32* %3, align 4
  %43 = sext i32 %42 to i64
  %44 = getelementptr inbounds [300 x i32], [300 x i32]* %2, i64 0, i64 %43
  %45 = load i32, i32* %44, align 4
  %46 = load i32, i32* %3, align 4
  %47 = add nsw i32 %46, 1
  %48 = sext i32 %47 to i64
  %49 = getelementptr inbounds [300 x i32], [300 x i32]* %2, i64 0, i64 %48
  %50 = load i32, i32* %49, align 4
  %51 = icmp slt i32 %45, %50
  br i1 %51, label %52, label %70

52:                                               ; preds = %41
  %53 = load i32, i32* %3, align 4
  %54 = sext i32 %53 to i64
  %55 = getelementptr inbounds [300 x i32], [300 x i32]* %2, i64 0, i64 %54
  %56 = load i32, i32* %55, align 4
  store i32 %56, i32* %4, align 4
  %57 = load i32, i32* %3, align 4
  %58 = add nsw i32 %57, 1
  %59 = sext i32 %58 to i64
  %60 = getelementptr inbounds [300 x i32], [300 x i32]* %2, i64 0, i64 %59
  %61 = load i32, i32* %60, align 4
  %62 = load i32, i32* %3, align 4
  %63 = sext i32 %62 to i64
  %64 = getelementptr inbounds [300 x i32], [300 x i32]* %2, i64 0, i64 %63
  store i32 %61, i32* %64, align 4
  %65 = load i32, i32* %4, align 4
  %66 = load i32, i32* %3, align 4
  %67 = add nsw i32 %66, 1
  %68 = sext i32 %67 to i64
  %69 = getelementptr inbounds [300 x i32], [300 x i32]* %2, i64 0, i64 %68
  store i32 %65, i32* %69, align 4
  br label %70

70:                                               ; preds = %52, %41
  br label %71

71:                                               ; preds = %70
  %72 = load i32, i32* %3, align 4
  %73 = add nsw i32 %72, 1
  store i32 %73, i32* %3, align 4
  br label %36

74:                                               ; preds = %36
  br label %75

75:                                               ; preds = %74
  %76 = load i32, i32* %1, align 4
  %77 = add nsw i32 %76, 1
  store i32 %77, i32* %1, align 4
  br label %32

78:                                               ; preds = %32
  store i32 0, i32* %1, align 4
  store i32 1, i32* %3, align 4
  store i32 0, i32* %4, align 4
  store i32 0, i32* %4, align 4
  br label %79

79:                                               ; preds = %98, %78
  %80 = load i32, i32* %4, align 4
  %81 = icmp slt i32 %80, 300
  br i1 %81, label %82, label %101

82:                                               ; preds = %79
  %83 = load i32, i32* %5, align 4
  %84 = load i32, i32* %4, align 4
  %85 = sext i32 %84 to i64
  %86 = getelementptr inbounds [300 x i32], [300 x i32]* %2, i64 0, i64 %85
  %87 = load i32, i32* %86, align 4
  %88 = add nsw i32 %83, %87
  store i32 %88, i32* %5, align 4
  %89 = load i32, i32* %4, align 4
  %90 = sext i32 %89 to i64
  %91 = getelementptr inbounds [300 x i32], [300 x i32]* %2, i64 0, i64 %90
  %92 = load i32, i32* %91, align 4
  %93 = icmp ne i32 %92, 0
  br i1 %93, label %94, label %97

94:                                               ; preds = %82
  %95 = load i32, i32* %1, align 4
  %96 = add nsw i32 %95, 1
  store i32 %96, i32* %1, align 4
  br label %97

97:                                               ; preds = %94, %82
  br label %98

98:                                               ; preds = %97
  %99 = load i32, i32* %4, align 4
  %100 = add nsw i32 %99, 1
  store i32 %100, i32* %4, align 4
  br label %79

101:                                              ; preds = %79
  %102 = getelementptr inbounds [300 x i32], [300 x i32]* %2, i64 0, i64 0
  %103 = load i32, i32* %102, align 16
  %104 = load i32, i32* %1, align 4
  %105 = mul nsw i32 %103, %104
  store i32 %105, i32* %3, align 4
  store i32 0, i32* %1, align 4
  store i32 0, i32* %4, align 4
  br label %106

106:                                              ; preds = %123, %101
  %107 = load i32, i32* %4, align 4
  %108 = icmp slt i32 %107, 300
  br i1 %108, label %109, label %126

109:                                              ; preds = %106
  %110 = load i32, i32* %1, align 4
  %111 = sext i32 %110 to i64
  %112 = getelementptr inbounds [300 x i32], [300 x i32]* %2, i64 0, i64 %111
  %113 = load i32, i32* %112, align 4
  %114 = load i32, i32* %1, align 4
  %115 = add nsw i32 %114, 1
  %116 = sext i32 %115 to i64
  %117 = getelementptr inbounds [300 x i32], [300 x i32]* %2, i64 0, i64 %116
  %118 = load i32, i32* %117, align 4
  %119 = icmp eq i32 %113, %118
  br i1 %119, label %120, label %123

120:                                              ; preds = %109
  %121 = load i32, i32* %1, align 4
  %122 = add nsw i32 %121, 1
  store i32 %122, i32* %1, align 4
  br label %123

123:                                              ; preds = %120, %109
  %124 = load i32, i32* %4, align 4
  %125 = add nsw i32 %124, 1
  store i32 %125, i32* %4, align 4
  br label %106

126:                                              ; preds = %106
  %127 = load i32, i32* %5, align 4
  %128 = load i32, i32* %3, align 4
  %129 = icmp ne i32 %127, %128
  br i1 %129, label %130, label %137

130:                                              ; preds = %126
  %131 = load i32, i32* %1, align 4
  %132 = add nsw i32 %131, 1
  %133 = sext i32 %132 to i64
  %134 = getelementptr inbounds [300 x i32], [300 x i32]* %2, i64 0, i64 %133
  %135 = load i32, i32* %134, align 4
  %136 = call i32 (i8*, ...) @printf(i8* getelementptr inbounds ([4 x i8], [4 x i8]* @.str.2, i64 0, i64 0), i32 %135)
  br label %139

137:                                              ; preds = %126
  %138 = call i32 (i8*, ...) @printf(i8* getelementptr inbounds ([4 x i8], [4 x i8]* @.str.3, i64 0, i64 0))
  br label %139

139:                                              ; preds = %137, %130
  br label %142

140:                                              ; preds = %27
  %141 = call i32 (i8*, ...) @printf(i8* getelementptr inbounds ([4 x i8], [4 x i8]* @.str.3, i64 0, i64 0))
  br label %142

142:                                              ; preds = %140, %139
  ret void
}

; Function Attrs: argmemonly nounwind willreturn
declare void @llvm.memset.p0i8.i64(i8* nocapture writeonly, i8, i64, i1 immarg) #1

declare dso_local i32 @__isoc99_scanf(i8*, ...) #2

declare dso_local i32 @printf(i8*, ...) #2


!llvm.module.flags = !{!0}
!llvm.ident = !{!1}

!0 = !{i32 1, !"wchar_size", i32 4}
!1 = !{!"clang version 10.0.0-4ubuntu1 "}
